Certificate:
    Data:
        Version: 3 (0x2)
        Serial Number: 0 (0x0)
        Signature Algorithm: sha256WithRSAEncryption
        Issuer: C=JP, ST=Tokyo, L=edogawa, O=testCompany, OU=software, CN=my_rootCA
        Validity
            Not Before: Dec  9 01:55:11 2023 GMT
            Not After : Dec  4 01:55:11 2043 GMT
        Subject: C=JP, ST=Tokyo, O=testCompany, OU=software, CN=localhost
        Subject Public Key Info:
            Public Key Algorithm: rsaEncryption
                Public-Key: (2048 bit)
                Modulus:
                    00:a1:b3:cd:f7:10:b7:1b:16:a8:ae:2c:3e:dd:ba:
                    b2:96:7c:1b:61:5f:d8:60:d7:cf:4f:b2:03:2a:01:
                    ac:ca:c4:e3:35:59:e6:60:64:1e:2a:91:d3:1b:66:
                    13:c2:7a:3b:30:f4:20:07:3b:2c:4b:62:bd:81:03:
                    18:f3:18:d2:8c:c3:01:ca:14:3e:dc:96:38:0d:2f:
                    29:55:1d:91:fa:1e:24:3e:25:47:e7:33:3b:ce:b8:
                    51:6e:9d:37:f4:bd:82:ce:df:a2:91:68:00:50:62:
                    4e:7f:98:e3:0b:f9:69:ba:8e:95:7b:ae:3d:3e:57:
                    ca:81:7e:f5:56:95:3b:c9:07:1c:8c:03:05:36:65:
                    8c:c0:f2:d0:49:be:52:d4:bb:61:1e:27:7d:b0:4b:
                    96:d2:20:52:ec:cb:20:21:f3:48:a3:37:b7:10:a7:
                    61:41:6a:8a:57:d1:bd:0f:4d:a6:e6:c8:e4:5d:60:
                    5b:13:f0:1a:2d:83:29:c5:8a:da:92:38:3c:3e:65:
                    3f:e1:12:14:dd:13:61:a4:f6:07:34:24:1a:f5:39:
                    8b:bb:9a:18:bc:29:3d:33:aa:9c:4c:de:e1:68:e8:
                    e7:fc:99:57:82:e9:7f:de:a1:f0:ef:9c:02:32:c2:
                    c9:3b:9d:02:ab:32:2a:f3:5a:c7:3d:cf:53:6c:f0:
                    b1:15
                Exponent: 65537 (0x10001)
        X509v3 extensions:
            X509v3 Subject Alternative Name: 
                DNS:localhost
            X509v3 Subject Key Identifier: 
                34:9E:B1:8F:F6:A0:F5:A7:08:BC:EF:24:CF:AD:75:62:45:52:7F:AE
            X509v3 Authority Key Identifier: 
                DirName:/C=JP/ST=Tokyo/L=edogawa/O=testCompany/OU=software/CN=my_rootCA
                serial:28:0F:53:9F:22:97:D7:B8:70:95:D1:05:89:C1:C5:D8:BE:FB:50:F8
    Signature Algorithm: sha256WithRSAEncryption
    Signature Value:
        12:ca:0d:89:70:97:4a:63:97:4e:9c:97:6d:02:72:ea:3e:50:
        95:ff:4a:98:5d:a5:c1:81:9e:7d:85:1d:04:a6:f2:67:4d:01:
        c3:3e:01:cf:35:92:0e:6c:ea:18:3e:c5:8b:e3:08:a6:2f:12:
        73:1b:8a:bd:de:15:15:23:36:5e:e2:23:44:b6:c7:b4:1e:27:
        02:88:2a:30:47:f8:75:27:a6:e6:c1:6e:f9:46:d3:05:31:99:
        43:b0:63:36:f9:b7:63:ad:27:a2:23:e0:c0:6c:76:92:36:f6:
        c4:ab:bf:c2:30:56:5c:1c:ea:e8:7f:d6:3e:be:80:0d:15:86:
        94:04:2b:99:e9:41:38:b1:2f:20:88:7c:fe:b1:67:3a:67:c0:
        be:45:f5:fe:07:a7:f2:0c:70:c4:79:d6:4e:74:04:96:33:38:
        ee:6d:3e:1a:f0:57:fd:38:52:d8:61:d2:91:da:48:9c:c2:62:
        78:7f:79:55:87:d0:d0:15:3b:2d:ad:32:de:4f:30:fe:ba:b9:
        a6:93:11:8e:99:6e:77:79:75:cf:15:3c:3c:26:28:15:0b:57:
        26:d4:fa:b1:22:fe:85:11:89:6e:18:6e:b0:d2:88:55:9c:42:
        6e:a7:2d:79:ac:9e:66:d4:66:e5:31:7d:8e:70:61:a3:67:8a:
        cf:0f:73:0a
-----BEGIN CERTIFICATE-----
MIIEEDCCAvigAwIBAgIBADANBgkqhkiG9w0BAQsFADBsMQswCQYDVQQGEwJKUDEO
MAwGA1UECAwFVG9reW8xEDAOBgNVBAcMB2Vkb2dhd2ExFDASBgNVBAoMC3Rlc3RD
b21wYW55MREwDwYDVQQLDAhzb2Z0d2FyZTESMBAGA1UEAwwJbXlfcm9vdENBMB4X
DTIzMTIwOTAxNTUxMVoXDTQzMTIwNDAxNTUxMVowWjELMAkGA1UEBhMCSlAxDjAM
BgNVBAgMBVRva3lvMRQwEgYDVQQKDAt0ZXN0Q29tcGFueTERMA8GA1UECwwIc29m
dHdhcmUxEjAQBgNVBAMMCWxvY2FsaG9zdDCCASIwDQYJKoZIhvcNAQEBBQADggEP
ADCCAQoCggEBAKGzzfcQtxsWqK4sPt26spZ8G2Ff2GDXz0+yAyoBrMrE4zVZ5mBk
HiqR0xtmE8J6OzD0IAc7LEtivYEDGPMY0ozDAcoUPtyWOA0vKVUdkfoeJD4lR+cz
O864UW6dN/S9gs7fopFoAFBiTn+Y4wv5abqOlXuuPT5XyoF+9VaVO8kHHIwDBTZl
jMDy0Em+UtS7YR4nfbBLltIgUuzLICHzSKM3txCnYUFqilfRvQ9NpubI5F1gWxPw
Gi2DKcWK2pI4PD5lP+ESFN0TYaT2BzQkGvU5i7uaGLwpPTOqnEze4Wjo5/yZV4Lp
f96h8O+cAjLCyTudAqsyKvNaxz3PU2zwsRUCAwEAAaOBzjCByzAUBgNVHREEDTAL
gglsb2NhbGhvc3QwHQYDVR0OBBYEFDSesY/2oPWnCLzvJM+tdWJFUn+uMIGTBgNV
HSMEgYswgYihcKRuMGwxCzAJBgNVBAYTAkpQMQ4wDAYDVQQIDAVUb2t5bzEQMA4G
A1UEBwwHZWRvZ2F3YTEUMBIGA1UECgwLdGVzdENvbXBhbnkxETAPBgNVBAsMCHNv
ZnR3YXJlMRIwEAYDVQQDDAlteV9yb290Q0GCFCgPU58il9e4cJXRBYnBxdi++1D4
MA0GCSqGSIb3DQEBCwUAA4IBAQASyg2JcJdKY5dOnJdtAnLqPlCV/0qYXaXBgZ59
hR0EpvJnTQHDPgHPNZIObOoYPsWL4wimLxJzG4q93hUVIzZe4iNEtse0HicCiCow
R/h1J6bmwW75RtMFMZlDsGM2+bdjrSeiI+DAbHaSNvbEq7/CMFZcHOrof9Y+voAN
FYaUBCuZ6UE4sS8giHz+sWc6Z8C+RfX+B6fyDHDEedZOdASWMzjubT4a8Ff9OFLY
YdKR2kicwmJ4f3lVh9DQFTstrTLeTzD+urmmkxGOmW53eXXPFTw8JigVC1cm1Pqx
Iv6FEYluGG6w0ohVnEJupy15rJ5m1GblMX2OcGGjZ4rPD3MK
-----END CERTIFICATE-----
